target datalayout = "e-m:e-p270:32:32-p271:32:32-p272:64:64-i64:64-i128:128-f80:128-n8:16:32:64-S128"
target triple = "x86_64-pc-linux-gnu"

%struct.ps_module_struct = type { ptr, ptr, ptr, ptr, ptr, ptr, ptr, ptr, ptr, ptr }

@ps_modules = internal global <{ ptr, ptr, [31 x ptr] }> <{ ptr @ps_mod_files, ptr @ps_mod_user, [31 x ptr] zeroinitializer }>, align 16

; Function Attrs: nounwind uwtable
define ptr @_php_find_ps_module(ptr noundef %0) #0 {
  %2 = alloca ptr, align 8
  %3 = alloca ptr, align 8
  %4 = alloca ptr, align 8
  %5 = alloca i32, align 4
  store ptr %0, ptr %2, align 8
  store ptr null, ptr %3, align 8
  store i32 0, ptr %5, align 4
  store ptr @ps_modules, ptr %4, align 8
  br label %6

6:                                                ; preds = %25, %1
  %7 = load i32, ptr %5, align 4
  %8 = icmp slt i32 %7, 32
  br i1 %8, label %9, label %30

9:                                                ; preds = %6
  %10 = load ptr, ptr %4, align 8
  %11 = load ptr, ptr %10, align 8
  %12 = icmp ne ptr %11, null
  br i1 %12, label %13, label %24

13:                                               ; preds = %9
  %14 = load ptr, ptr %2, align 8
  %15 = load ptr, ptr %4, align 8
  %16 = load ptr, ptr %15, align 8
  %17 = getelementptr inbounds %struct.ps_module_struct, ptr %16, i32 0, i32 0
  %18 = load ptr, ptr %17, align 8
  %19 = call i32 @strcasecmp(ptr noundef %14, ptr noundef %18) #16
  %20 = icmp ne i32 %19, 0
  br i1 %20, label %24, label %21

21:                                               ; preds = %13
  %22 = load ptr, ptr %4, align 8
  %23 = load ptr, ptr %22, align 8
  store ptr %23, ptr %3, align 8
  br label %30

24:                                               ; preds = %13, %9
  br label %25

25:                                               ; preds = %24
  %26 = load i32, ptr %5, align 4
  %27 = add nsw i32 %26, 1
  store i32 %27, ptr %5, align 4
  %28 = load ptr, ptr %4, align 8
  %29 = getelementptr inbounds ptr, ptr %28, i32 1
  store ptr %29, ptr %4, align 8
  br label %6

30:                                               ; preds = %21, %6
  %31 = load ptr, ptr %3, align 8
  ret ptr %31
}