; Function Attrs: nofree nounwind memory(read) uwtable
define ptr @_php_find_ps_module(ptr nocapture noundef readonly %0) local_unnamed_addr #7 {
  br label %2

2:                                                ; preds = %1, %7
  %.012 = phi i32 [ 0, %1 ], [ %8, %7 ]
  %.0711 = phi ptr [ @ps_modules, %1 ], [ %9, %7 ]
  %3 = load ptr, ptr %.0711, align 8
  %.not = icmp eq ptr %3, null
  br i1 %.not, label %7, label %4

4:                                                ; preds = %2
  %5 = load ptr, ptr %3, align 8
  %6 = tail call i32 @strcasecmp(ptr noundef %0, ptr noundef %5) #26
  %.not10 = icmp eq i32 %6, 0
  br i1 %.not10, label %10, label %7

7:                                                ; preds = %2, %4
  %8 = add nuw nsw i32 %.012, 1
  %9 = getelementptr inbounds i8, ptr %.0711, i64 8
  %exitcond.not = icmp eq i32 %8, 32
  br i1 %exitcond.not, label %10, label %2

10:                                               ; preds = %4, %7
  %.08 = phi ptr [ null, %7 ], [ %3, %4 ]
  ret ptr %.08
}